target datalayout = "e-m:e-p270:32:32-p271:32:32-p272:64:64-i64:64-i128:128-f80:128-n8:16:32:64-S128"
target triple = "x86_64-pc-linux-gnu"

%struct.FullTransactionId = type { i64 }
%struct.pg_atomic_uint32 = type { i32 }
%struct.LWLock = type { i16, %struct.pg_atomic_uint32, %struct.proclist_head }
%struct.proclist_head = type { i32, i32 }
%union.LWLockPadded = type { %struct.LWLock, [112 x i8] }
%struct.TransamVariablesData = type { i32, i32, %struct.FullTransactionId, i32, i32, i32, i32, i32, i32, i32, i32, %struct.FullTransactionId, i64, i32 }

@TransamVariables = dso_local global ptr null, align 8
@IsUnderPostmaster = external global i8, align 1
@.str.2 = private unnamed_addr constant [9 x i8] c"varsup.c\00", align 1
@MainLWLockArray = external global ptr, align 8
@.str.7 = private unnamed_addr constant [54 x i8] c"database \22%s\22 must be vacuumed within %u transactions\00", align 1
@.str.9 = private unnamed_addr constant [61 x i8] c"database with OID %u must be vacuumed within %u transactions\00", align 1
@.str.10 = private unnamed_addr constant [186 x i8] c"To avoid XID assignment failures, execute a database-wide VACUUM in that database.\0AYou might also need to commit or roll back old prepared transactions, or drop stale replication slots.\00", align 1
@autovacuum_freeze_max_age = external global i32, align 4
@.str.11 = private unnamed_addr constant [65 x i8] c"transaction ID wrap limit is %u, limited by database with OID %u\00", align 1
@__func__.SetTransactionIdLimit = private unnamed_addr constant [22 x i8] c"SetTransactionIdLimit\00", align 1
@InRecovery = external global i8, align 1

; Function Attrs: nounwind uwtable
define dso_local void @SetTransactionIdLimit(i32 noundef %0, i32 noundef %1) #0 {
  %3 = alloca i32, align 4
  %4 = alloca i32, align 4
  %5 = alloca i32, align 4
  %6 = alloca i32, align 4
  %7 = alloca i32, align 4
  %8 = alloca i32, align 4
  %9 = alloca i32, align 4
  %10 = alloca ptr, align 8
  store i32 %0, ptr %3, align 4
  store i32 %1, ptr %4, align 4
  call void @llvm.lifetime.start.p0(i64 4, ptr %5) #8
  call void @llvm.lifetime.start.p0(i64 4, ptr %6) #8
  call void @llvm.lifetime.start.p0(i64 4, ptr %7) #8
  call void @llvm.lifetime.start.p0(i64 4, ptr %8) #8
  call void @llvm.lifetime.start.p0(i64 4, ptr %9) #8
  %11 = load i32, ptr %3, align 4
  %12 = add i32 %11, 2147483647
  store i32 %12, ptr %8, align 4
  %13 = load i32, ptr %8, align 4
  %14 = icmp ult i32 %13, 3
  br i1 %14, label %15, label %18

15:                                               ; preds = %2
  %16 = load i32, ptr %8, align 4
  %17 = add i32 %16, 3
  store i32 %17, ptr %8, align 4
  br label %18

18:                                               ; preds = %15, %2
  %19 = load i32, ptr %8, align 4
  %20 = sub i32 %19, 3000000
  store i32 %20, ptr %7, align 4
  %21 = load i32, ptr %7, align 4
  %22 = icmp ult i32 %21, 3
  br i1 %22, label %23, label %26

23:                                               ; preds = %18
  %24 = load i32, ptr %7, align 4
  %25 = sub i32 %24, 3
  store i32 %25, ptr %7, align 4
  br label %26

26:                                               ; preds = %23, %18
  %27 = load i32, ptr %8, align 4
  %28 = sub i32 %27, 40000000
  store i32 %28, ptr %6, align 4
  %29 = load i32, ptr %6, align 4
  %30 = icmp ult i32 %29, 3
  br i1 %30, label %31, label %34

31:                                               ; preds = %26
  %32 = load i32, ptr %6, align 4
  %33 = sub i32 %32, 3
  store i32 %33, ptr %6, align 4
  br label %34

34:                                               ; preds = %31, %26
  %35 = load i32, ptr %3, align 4
  %36 = load i32, ptr @autovacuum_freeze_max_age, align 4
  %37 = add i32 %35, %36
  store i32 %37, ptr %5, align 4
  %38 = load i32, ptr %5, align 4
  %39 = icmp ult i32 %38, 3
  br i1 %39, label %40, label %43

40:                                               ; preds = %34
  %41 = load i32, ptr %5, align 4
  %42 = add i32 %41, 3
  store i32 %42, ptr %5, align 4
  br label %43

43:                                               ; preds = %40, %34
  %44 = load ptr, ptr @MainLWLockArray, align 8
  %45 = getelementptr inbounds %union.LWLockPadded, ptr %44, i64 3
  %46 = call zeroext i1 @LWLockAcquire(ptr noundef %45, i32 noundef 0)
  %47 = load i32, ptr %3, align 4
  %48 = load ptr, ptr @TransamVariables, align 8
  %49 = getelementptr inbounds nuw %struct.TransamVariablesData, ptr %48, i32 0, i32 3
  store i32 %47, ptr %49, align 8
  %50 = load i32, ptr %5, align 4
  %51 = load ptr, ptr @TransamVariables, align 8
  %52 = getelementptr inbounds nuw %struct.TransamVariablesData, ptr %51, i32 0, i32 4
  store i32 %50, ptr %52, align 4
  %53 = load i32, ptr %6, align 4
  %54 = load ptr, ptr @TransamVariables, align 8
  %55 = getelementptr inbounds nuw %struct.TransamVariablesData, ptr %54, i32 0, i32 5
  store i32 %53, ptr %55, align 8
  %56 = load i32, ptr %7, align 4
  %57 = load ptr, ptr @TransamVariables, align 8
  %58 = getelementptr inbounds nuw %struct.TransamVariablesData, ptr %57, i32 0, i32 6
  store i32 %56, ptr %58, align 4
  %59 = load i32, ptr %8, align 4
  %60 = load ptr, ptr @TransamVariables, align 8
  %61 = getelementptr inbounds nuw %struct.TransamVariablesData, ptr %60, i32 0, i32 7
  store i32 %59, ptr %61, align 8
  %62 = load i32, ptr %4, align 4
  %63 = load ptr, ptr @TransamVariables, align 8
  %64 = getelementptr inbounds nuw %struct.TransamVariablesData, ptr %63, i32 0, i32 8
  store i32 %62, ptr %64, align 4
  %65 = load ptr, ptr @TransamVariables, align 8
  %66 = getelementptr inbounds nuw %struct.TransamVariablesData, ptr %65, i32 0, i32 2
  %67 = getelementptr inbounds nuw %struct.FullTransactionId, ptr %66, i32 0, i32 0
  %68 = load i64, ptr %67, align 8
  %69 = trunc i64 %68 to i32
  store i32 %69, ptr %9, align 4
  %70 = load ptr, ptr @MainLWLockArray, align 8
  %71 = getelementptr inbounds %union.LWLockPadded, ptr %70, i64 3
  call void @LWLockRelease(ptr noundef %71)
  br label %72

72:                                               ; preds = %43
  br i1 false, label %73, label %75

73:                                               ; preds = %72
  %74 = call zeroext i1 @errstart_cold(i32 noundef 14, ptr noundef null) #9
  br i1 %74, label %77, label %81

75:                                               ; preds = %72
  %76 = call zeroext i1 @errstart(i32 noundef 14, ptr noundef null)
  br i1 %76, label %77, label %81

77:                                               ; preds = %75, %73
  %78 = load i32, ptr %8, align 4
  %79 = load i32, ptr %4, align 4
  %80 = call i32 (ptr, ...) @errmsg_internal(ptr noundef @.str.11, i32 noundef %78, i32 noundef %79)
  call void @errfinish(ptr noundef @.str.2, i32 noundef 456, ptr noundef @__func__.SetTransactionIdLimit)
  br label %81

81:                                               ; preds = %77, %75, %73
  br label %82

82:                                               ; preds = %81
  br label %83

83:                                               ; preds = %82
  %84 = load i32, ptr %9, align 4
  %85 = load i32, ptr %5, align 4
  %86 = call zeroext i1 @TransactionIdFollowsOrEquals(i32 noundef %84, i32 noundef %85)
  br i1 %86, label %87, label %94

87:                                               ; preds = %83
  %88 = load i8, ptr @IsUnderPostmaster, align 1, !range !4, !noundef !5
  %89 = trunc i8 %88 to i1
  br i1 %89, label %90, label %94

90:                                               ; preds = %87
  %91 = load i8, ptr @InRecovery, align 1, !range !4, !noundef !5
  %92 = trunc i8 %91 to i1
  br i1 %92, label %94, label %93

93:                                               ; preds = %90
  call void @SendPostmasterSignal(i32 noundef 3)
  br label %94

94:                                               ; preds = %93, %90, %87, %83
  %95 = load i32, ptr %9, align 4
  %96 = load i32, ptr %6, align 4
  %97 = call zeroext i1 @TransactionIdFollowsOrEquals(i32 noundef %95, i32 noundef %96)
  br i1 %97, label %98, label %143

98:                                               ; preds = %94
  %99 = load i8, ptr @InRecovery, align 1, !range !4, !noundef !5
  %100 = trunc i8 %99 to i1
  br i1 %100, label %143, label %101

101:                                              ; preds = %98
  call void @llvm.lifetime.start.p0(i64 8, ptr %10) #8
  %102 = call zeroext i1 @IsTransactionState()
  br i1 %102, label %103, label %106

103:                                              ; preds = %101
  %104 = load i32, ptr %4, align 4
  %105 = call ptr @get_database_name(i32 noundef %104)
  store ptr %105, ptr %10, align 8
  br label %107

106:                                              ; preds = %101
  store ptr null, ptr %10, align 8
  br label %107

107:                                              ; preds = %106, %103
  %108 = load ptr, ptr %10, align 8
  %109 = icmp ne ptr %108, null
  br i1 %109, label %110, label %126

110:                                              ; preds = %107
  br label %111

111:                                              ; preds = %110
  br i1 false, label %112, label %114

112:                                              ; preds = %111
  %113 = call zeroext i1 @errstart_cold(i32 noundef 19, ptr noundef null) #9
  br i1 %113, label %116, label %123

114:                                              ; preds = %111
  %115 = call zeroext i1 @errstart(i32 noundef 19, ptr noundef null)
  br i1 %115, label %116, label %123

116:                                              ; preds = %114, %112
  %117 = load ptr, ptr %10, align 8
  %118 = load i32, ptr %8, align 4
  %119 = load i32, ptr %9, align 4
  %120 = sub i32 %118, %119
  %121 = call i32 (ptr, ...) @errmsg(ptr noundef @.str.7, ptr noundef %117, i32 noundef %120)
  %122 = call i32 (ptr, ...) @errhint(ptr noundef @.str.10)
  call void @errfinish(ptr noundef @.str.2, i32 noundef 494, ptr noundef @__func__.SetTransactionIdLimit)
  br label %123

123:                                              ; preds = %116, %114, %112
  br label %124

124:                                              ; preds = %123
  br label %125

125:                                              ; preds = %124
  br label %142

126:                                              ; preds = %107
  br label %127

127:                                              ; preds = %126
  br i1 false, label %128, label %130

128:                                              ; preds = %127
  %129 = call zeroext i1 @errstart_cold(i32 noundef 19, ptr noundef null) #9
  br i1 %129, label %132, label %139

130:                                              ; preds = %127
  %131 = call zeroext i1 @errstart(i32 noundef 19, ptr noundef null)
  br i1 %131, label %132, label %139

132:                                              ; preds = %130, %128
  %133 = load i32, ptr %4, align 4
  %134 = load i32, ptr %8, align 4
  %135 = load i32, ptr %9, align 4
  %136 = sub i32 %134, %135
  %137 = call i32 (ptr, ...) @errmsg(ptr noundef @.str.9, i32 noundef %133, i32 noundef %136)
  %138 = call i32 (ptr, ...) @errhint(ptr noundef @.str.10)
  call void @errfinish(ptr noundef @.str.2, i32 noundef 501, ptr noundef @__func__.SetTransactionIdLimit)
  br label %139

139:                                              ; preds = %132, %130, %128
  br label %140

140:                                              ; preds = %139
  br label %141

141:                                              ; preds = %140
  br label %142

142:                                              ; preds = %141, %125
  call void @llvm.lifetime.end.p0(i64 8, ptr %10) #8
  br label %143

143:                                              ; preds = %142, %98, %94
  call void @llvm.lifetime.end.p0(i64 4, ptr %9) #8
  call void @llvm.lifetime.end.p0(i64 4, ptr %8) #8
  call void @llvm.lifetime.end.p0(i64 4, ptr %7) #8
  call void @llvm.lifetime.end.p0(i64 4, ptr %6) #8
  call void @llvm.lifetime.end.p0(i64 4, ptr %5) #8
  ret void
}